target datalayout = "e-m:e-p270:32:32-p271:32:32-p272:64:64-i64:64-i128:128-f80:128-n8:16:32:64-S128"
target triple = "x86_64-unknown-linux-gnu"

%"class.icu_75::UObject" = type { ptr }
%"class.icu_75::DateFormat" = type { %"class.icu_75::Format.base", ptr, ptr, %"class.icu_75::EnumSet", i32 }
%"class.icu_75::Format.base" = type <{ %"class.icu_75::UObject", [157 x i8], [157 x i8] }>
%"class.icu_75::EnumSet" = type { i32 }

; Function Attrs: mustprogress nounwind uwtable
define linkonce_odr noundef nonnull align 4 dereferenceable(4) ptr @_ZN6icu_757EnumSetI27UDateFormatBooleanAttributeLj0ELj4EEaSERKS2_(ptr noundef nonnull align 4 dereferenceable(4) %this, ptr noundef nonnull align 4 dereferenceable(4) %other) #0 comdat align 2 {
entry:
  %this.addr = alloca ptr, align 8
  %other.addr = alloca ptr, align 8
  store ptr %this, ptr %this.addr, align 8
  store ptr %other, ptr %other.addr, align 8
  %this1 = load ptr, ptr %this.addr, align 8
  %0 = load ptr, ptr %other.addr, align 8
  %fBools = getelementptr inbounds %"class.icu_75::EnumSet", ptr %0, i32 0, i32 0
  %1 = load i32, ptr %fBools, align 4
  %fBools2 = getelementptr inbounds %"class.icu_75::EnumSet", ptr %this1, i32 0, i32 0
  store i32 %1, ptr %fBools2, align 4
  ret ptr %this1
}

; Function Attrs: mustprogress nounwind uwtable
define linkonce_odr void @_ZN6icu_757EnumSetI27UDateFormatBooleanAttributeLj0ELj4EED2Ev(ptr noundef nonnull align 4 dereferenceable(4) %this) unnamed_addr #0 comdat align 2 {
entry:
  %this.addr = alloca ptr, align 8
  store ptr %this, ptr %this.addr, align 8
  ret void
}

; Function Attrs: mustprogress uwtable
define noundef nonnull align 8 dereferenceable(352) ptr @_ZN6icu_7510DateFormataSERKS0_(ptr noundef nonnull align 8 dereferenceable(352) %this, ptr noundef nonnull align 8 dereferenceable(352) %other) #2 align 2 {
entry:
  %this.addr = alloca ptr, align 8
  %other.addr = alloca ptr, align 8
  store ptr %this, ptr %this.addr, align 8
  store ptr %other, ptr %other.addr, align 8
  %this1 = load ptr, ptr %this.addr, align 8
  %0 = load ptr, ptr %other.addr, align 8
  %cmp = icmp ne ptr %this1, %0
  br i1 %cmp, label %if.then, label %if.end28

if.then:                                          ; preds = %entry
  %fCalendar = getelementptr inbounds %"class.icu_75::DateFormat", ptr %this1, i32 0, i32 1
  %1 = load ptr, ptr %fCalendar, align 8
  %isnull = icmp eq ptr %1, null
  br i1 %isnull, label %delete.end, label %delete.notnull

delete.notnull:                                   ; preds = %if.then
  %vtable = load ptr, ptr %1, align 8
  %vfn = getelementptr inbounds ptr, ptr %vtable, i64 1
  %2 = load ptr, ptr %vfn, align 8
  call void %2(ptr noundef nonnull align 8 dereferenceable(618) %1) #7
  br label %delete.end

delete.end:                                       ; preds = %delete.notnull, %if.then
  %fNumberFormat = getelementptr inbounds %"class.icu_75::DateFormat", ptr %this1, i32 0, i32 2
  %3 = load ptr, ptr %fNumberFormat, align 8
  %isnull2 = icmp eq ptr %3, null
  br i1 %isnull2, label %delete.end6, label %delete.notnull3

delete.notnull3:                                  ; preds = %delete.end
  %vtable4 = load ptr, ptr %3, align 8
  %vfn5 = getelementptr inbounds ptr, ptr %vtable4, i64 1
  %4 = load ptr, ptr %vfn5, align 8
  call void %4(ptr noundef nonnull align 8 dereferenceable(356) %3) #7
  br label %delete.end6

delete.end6:                                      ; preds = %delete.notnull3, %delete.end
  %5 = load ptr, ptr %other.addr, align 8
  %fCalendar7 = getelementptr inbounds %"class.icu_75::DateFormat", ptr %5, i32 0, i32 1
  %6 = load ptr, ptr %fCalendar7, align 8
  %tobool = icmp ne ptr %6, null
  br i1 %tobool, label %if.then8, label %if.else

if.then8:                                         ; preds = %delete.end6
  %7 = load ptr, ptr %other.addr, align 8
  %fCalendar9 = getelementptr inbounds %"class.icu_75::DateFormat", ptr %7, i32 0, i32 1
  %8 = load ptr, ptr %fCalendar9, align 8
  %vtable10 = load ptr, ptr %8, align 8
  %vfn11 = getelementptr inbounds ptr, ptr %vtable10, i64 3
  %9 = load ptr, ptr %vfn11, align 8
  %call = call noundef ptr %9(ptr noundef nonnull align 8 dereferenceable(618) %8)
  %fCalendar12 = getelementptr inbounds %"class.icu_75::DateFormat", ptr %this1, i32 0, i32 1
  store ptr %call, ptr %fCalendar12, align 8
  br label %if.end

if.else:                                          ; preds = %delete.end6
  %fCalendar13 = getelementptr inbounds %"class.icu_75::DateFormat", ptr %this1, i32 0, i32 1
  store ptr null, ptr %fCalendar13, align 8
  br label %if.end

if.end:                                           ; preds = %if.else, %if.then8
  %10 = load ptr, ptr %other.addr, align 8
  %fNumberFormat14 = getelementptr inbounds %"class.icu_75::DateFormat", ptr %10, i32 0, i32 2
  %11 = load ptr, ptr %fNumberFormat14, align 8
  %tobool15 = icmp ne ptr %11, null
  br i1 %tobool15, label %if.then16, label %if.else22

if.then16:                                        ; preds = %if.end
  %12 = load ptr, ptr %other.addr, align 8
  %fNumberFormat17 = getelementptr inbounds %"class.icu_75::DateFormat", ptr %12, i32 0, i32 2
  %13 = load ptr, ptr %fNumberFormat17, align 8
  %vtable18 = load ptr, ptr %13, align 8
  %vfn19 = getelementptr inbounds ptr, ptr %vtable18, i64 4
  %14 = load ptr, ptr %vfn19, align 8
  %call20 = call noundef ptr %14(ptr noundef nonnull align 8 dereferenceable(356) %13)
  %fNumberFormat21 = getelementptr inbounds %"class.icu_75::DateFormat", ptr %this1, i32 0, i32 2
  store ptr %call20, ptr %fNumberFormat21, align 8
  br label %if.end24

if.else22:                                        ; preds = %if.end
  %fNumberFormat23 = getelementptr inbounds %"class.icu_75::DateFormat", ptr %this1, i32 0, i32 2
  store ptr null, ptr %fNumberFormat23, align 8
  br label %if.end24

if.end24:                                         ; preds = %if.else22, %if.then16
  %15 = load ptr, ptr %other.addr, align 8
  %fBoolFlags = getelementptr inbounds %"class.icu_75::DateFormat", ptr %15, i32 0, i32 3
  %fBoolFlags25 = getelementptr inbounds %"class.icu_75::DateFormat", ptr %this1, i32 0, i32 3
  %call26 = call noundef nonnull align 4 dereferenceable(4) ptr @_ZN6icu_757EnumSetI27UDateFormatBooleanAttributeLj0ELj4EEaSERKS2_(ptr noundef nonnull align 4 dereferenceable(4) %fBoolFlags25, ptr noundef nonnull align 4 dereferenceable(4) %fBoolFlags)
  %16 = load ptr, ptr %other.addr, align 8
  %fCapitalizationContext = getelementptr inbounds %"class.icu_75::DateFormat", ptr %16, i32 0, i32 4
  %17 = load i32, ptr %fCapitalizationContext, align 4
  %fCapitalizationContext27 = getelementptr inbounds %"class.icu_75::DateFormat", ptr %this1, i32 0, i32 4
  store i32 %17, ptr %fCapitalizationContext27, align 4
  br label %if.end28

if.end28:                                         ; preds = %if.end24, %entry
  ret ptr %this1
}

; Function Attrs: mustprogress nounwind uwtable
define linkonce_odr void @_ZN6icu_757EnumSetI27UDateFormatBooleanAttributeLj0ELj4EEC2Ev(ptr noundef nonnull align 4 dereferenceable(4) %this) unnamed_addr #0 comdat align 2 {
entry:
  %this.addr = alloca ptr, align 8
  store ptr %this, ptr %this.addr, align 8
  %this1 = load ptr, ptr %this.addr, align 8
  %fBools = getelementptr inbounds %"class.icu_75::EnumSet", ptr %this1, i32 0, i32 0
  store i32 0, ptr %fBools, align 4
  ret void
}

; Function Attrs: mustprogress uwtable
define void @_ZN6icu_7510DateFormatC2ERKS0_(ptr noundef nonnull align 8 dereferenceable(352) %this, ptr noundef nonnull align 8 dereferenceable(352) %other) unnamed_addr #2 align 2 personality ptr @__gxx_personality_v0 {
entry:
  %this.addr = alloca ptr, align 8
  %other.addr = alloca ptr, align 8
  %exn.slot = alloca ptr, align 8
  %ehselector.slot = alloca i32, align 4
  store ptr %this, ptr %this.addr, align 8
  store ptr %other, ptr %other.addr, align 8
  %this1 = load ptr, ptr %this.addr, align 8
  %0 = load ptr, ptr %other.addr, align 8
  call void @_ZN6icu_756FormatC2ERKS0_(ptr noundef nonnull align 8 dereferenceable(322) %this1, ptr noundef nonnull align 8 dereferenceable(322) %0)
  store ptr getelementptr inbounds ({ [31 x ptr] }, ptr @_ZTVN6icu_7510DateFormatE, i32 0, i32 0, i32 2), ptr %this1, align 8
  %fCalendar = getelementptr inbounds %"class.icu_75::DateFormat", ptr %this1, i32 0, i32 1
  store ptr null, ptr %fCalendar, align 8
  %fNumberFormat = getelementptr inbounds %"class.icu_75::DateFormat", ptr %this1, i32 0, i32 2
  store ptr null, ptr %fNumberFormat, align 8
  %fBoolFlags = getelementptr inbounds %"class.icu_75::DateFormat", ptr %this1, i32 0, i32 3
  invoke void @_ZN6icu_757EnumSetI27UDateFormatBooleanAttributeLj0ELj4EEC2Ev(ptr noundef nonnull align 4 dereferenceable(4) %fBoolFlags)
          to label %invoke.cont unwind label %lpad

invoke.cont:                                      ; preds = %entry
  %fCapitalizationContext = getelementptr inbounds %"class.icu_75::DateFormat", ptr %this1, i32 0, i32 4
  store i32 256, ptr %fCapitalizationContext, align 4
  %1 = load ptr, ptr %other.addr, align 8
  %call = invoke noundef nonnull align 8 dereferenceable(352) ptr @_ZN6icu_7510DateFormataSERKS0_(ptr noundef nonnull align 8 dereferenceable(352) %this1, ptr noundef nonnull align 8 dereferenceable(352) %1)
          to label %invoke.cont3 unwind label %lpad2

invoke.cont3:                                     ; preds = %invoke.cont
  ret void

lpad:                                             ; preds = %entry
  %2 = landingpad { ptr, i32 }
          cleanup
  %3 = extractvalue { ptr, i32 } %2, 0
  store ptr %3, ptr %exn.slot, align 8
  %4 = extractvalue { ptr, i32 } %2, 1
  store i32 %4, ptr %ehselector.slot, align 4
  br label %ehcleanup

lpad2:                                            ; preds = %invoke.cont
  %5 = landingpad { ptr, i32 }
          cleanup
  %6 = extractvalue { ptr, i32 } %5, 0
  store ptr %6, ptr %exn.slot, align 8
  %7 = extractvalue { ptr, i32 } %5, 1
  store i32 %7, ptr %ehselector.slot, align 4
  call void @_ZN6icu_757EnumSetI27UDateFormatBooleanAttributeLj0ELj4EED2Ev(ptr noundef nonnull align 4 dereferenceable(4) %fBoolFlags) #7
  br label %ehcleanup

ehcleanup:                                        ; preds = %lpad2, %lpad
  call void @_ZN6icu_756FormatD2Ev(ptr noundef nonnull align 8 dereferenceable(322) %this1) #7
  br label %eh.resume

eh.resume:                                        ; preds = %ehcleanup
  %exn = load ptr, ptr %exn.slot, align 8
  %sel = load i32, ptr %ehselector.slot, align 4
  %lpad.val = insertvalue { ptr, i32 } poison, ptr %exn, 0
  %lpad.val4 = insertvalue { ptr, i32 } %lpad.val, i32 %sel, 1
  resume { ptr, i32 } %lpad.val4
}