; Function Attrs: mustprogress uwtable
define void @_ZN6icu_7510DateFormatC2ERKS0_(ptr noundef nonnull align 8 dereferenceable(352) %this, ptr noundef nonnull align 8 dereferenceable(352) %other) unnamed_addr #3 align 2 personality ptr @__gxx_personality_v0 {
entry:
  tail call void @_ZN6icu_756FormatC2ERKS0_(ptr noundef nonnull align 8 dereferenceable(322) %this, ptr noundef nonnull align 8 dereferenceable(322) %other)
  store ptr getelementptr inbounds ({ [31 x ptr] }, ptr @_ZTVN6icu_7510DateFormatE, i64 0, i32 0, i64 2), ptr %this, align 8
  %fCalendar = getelementptr inbounds i8, ptr %this, i64 328
  %fNumberFormat = getelementptr inbounds i8, ptr %this, i64 336
  %fBoolFlags = getelementptr inbounds i8, ptr %this, i64 344
  %fCapitalizationContext = getelementptr inbounds i8, ptr %this, i64 348
  tail call void @llvm.memset.p0.i64(ptr noundef nonnull align 8 dereferenceable(20) %fCalendar, i8 0, i64 20, i1 false)
  store i32 256, ptr %fCapitalizationContext, align 4
  %cmp.not.i = icmp eq ptr %this, %other
  br i1 %cmp.not.i, label %invoke.cont3, label %delete.end6.i

delete.end6.i:                                    ; preds = %entry
  %fCalendar7.i.phi.trans.insert = getelementptr inbounds i8, ptr %other, i64 328
  %.pre = load ptr, ptr %fCalendar7.i.phi.trans.insert, align 8
  %tobool.not.i = icmp eq ptr %.pre, null
  br i1 %tobool.not.i, label %if.end.i, label %if.then8.i

if.then8.i:                                       ; preds = %delete.end6.i
  %vtable10.i = load ptr, ptr %.pre, align 8
  %vfn11.i = getelementptr inbounds i8, ptr %vtable10.i, i64 24
  %0 = load ptr, ptr %vfn11.i, align 8
  %call.i2 = invoke noundef ptr %0(ptr noundef nonnull align 8 dereferenceable(618) %.pre)
          to label %if.end.i unwind label %lpad2

if.end.i:                                         ; preds = %if.then8.i, %delete.end6.i
  %storemerge.i = phi ptr [ null, %delete.end6.i ], [ %call.i2, %if.then8.i ]
  store ptr %storemerge.i, ptr %fCalendar, align 8
  %fNumberFormat14.i = getelementptr inbounds i8, ptr %other, i64 336
  %1 = load ptr, ptr %fNumberFormat14.i, align 8
  %tobool15.not.i = icmp eq ptr %1, null
  br i1 %tobool15.not.i, label %if.end24.i, label %if.then16.i

if.then16.i:                                      ; preds = %if.end.i
  %vtable18.i = load ptr, ptr %1, align 8
  %vfn19.i = getelementptr inbounds i8, ptr %vtable18.i, i64 32
  %2 = load ptr, ptr %vfn19.i, align 8
  %call20.i3 = invoke noundef ptr %2(ptr noundef nonnull align 8 dereferenceable(356) %1)
          to label %if.end24.i unwind label %lpad2

if.end24.i:                                       ; preds = %if.then16.i, %if.end.i
  %storemerge10.i = phi ptr [ null, %if.end.i ], [ %call20.i3, %if.then16.i ]
  store ptr %storemerge10.i, ptr %fNumberFormat, align 8
  %fBoolFlags.i = getelementptr inbounds i8, ptr %other, i64 344
  %3 = load i32, ptr %fBoolFlags.i, align 8
  store i32 %3, ptr %fBoolFlags, align 8
  %fCapitalizationContext.i = getelementptr inbounds i8, ptr %other, i64 348
  %4 = load i32, ptr %fCapitalizationContext.i, align 4
  store i32 %4, ptr %fCapitalizationContext, align 4
  br label %invoke.cont3

invoke.cont3:                                     ; preds = %if.end24.i, %entry
  ret void

lpad2:                                            ; preds = %if.then16.i, %if.then8.i
  %5 = landingpad { ptr, i32 }
          cleanup
  tail call void @_ZN6icu_756FormatD2Ev(ptr noundef nonnull align 8 dereferenceable(322) %this) #13
  resume { ptr, i32 } %5
}